target datalayout = "e-m:e-p270:32:32-p271:32:32-p272:64:64-i64:64-i128:128-f80:128-n8:16:32:64-S128"
target triple = "x86_64-pc-linux-gnu"

%struct.AVStream = type { ptr, i32, i32, ptr, ptr, %struct.AVRational, i64, i64, i64, i32, i32, %struct.AVRational, ptr, %struct.AVRational, %struct.AVPacket, i32, %struct.AVRational, i32 }
%struct.AVPacket = type { ptr, i64, i64, ptr, i32, i32, i32, ptr, i32, i64, i64, ptr, ptr, %struct.AVRational }
%struct.AVRational = type { i32, i32 }
%struct.SLConfigDescr = type { i32, i32, i32, i32, i32, i32, i32, i32, i32, i32, i32, i32, i32, i32 }
%struct.PESContext = type { i32, i32, i32, ptr, ptr, ptr, ptr, i32, i32, i32, i32, i32, i32, i8, i64, i64, i64, [264 x i8], ptr, %struct.SLConfigDescr, i32 }
%struct.AVBufferRef = type { ptr, ptr, i64 }

@.str.54 = private unnamed_addr constant [26 x i8] c"PES packet size mismatch\0A\00", align 1

; Function Attrs: nounwind uwtable
define internal void @reset_pes_packet_state(ptr noundef %0) #0 {
  %2 = alloca ptr, align 8
  store ptr %0, ptr %2, align 8, !tbaa !110
  %3 = load ptr, ptr %2, align 8, !tbaa !110
  %4 = getelementptr inbounds nuw %struct.PESContext, ptr %3, i32 0, i32 14
  store i64 -9223372036854775808, ptr %4, align 8, !tbaa !265
  %5 = load ptr, ptr %2, align 8, !tbaa !110
  %6 = getelementptr inbounds nuw %struct.PESContext, ptr %5, i32 0, i32 15
  store i64 -9223372036854775808, ptr %6, align 8, !tbaa !266
  %7 = load ptr, ptr %2, align 8, !tbaa !110
  %8 = getelementptr inbounds nuw %struct.PESContext, ptr %7, i32 0, i32 8
  store i32 0, ptr %8, align 4, !tbaa !194
  %9 = load ptr, ptr %2, align 8, !tbaa !110
  %10 = getelementptr inbounds nuw %struct.PESContext, ptr %9, i32 0, i32 9
  store i32 0, ptr %10, align 8, !tbaa !167
  %11 = load ptr, ptr %2, align 8, !tbaa !110
  %12 = getelementptr inbounds nuw %struct.PESContext, ptr %11, i32 0, i32 18
  call void @av_buffer_unref(ptr noundef %12)
  ret void
}

; Function Attrs: nounwind uwtable
define internal i32 @new_pes_packet(ptr noundef %0, ptr noundef %1) #0 {
  %3 = alloca i32, align 4
  %4 = alloca ptr, align 8
  %5 = alloca ptr, align 8
  %6 = alloca ptr, align 8
  %7 = alloca i32, align 4
  store ptr %0, ptr %4, align 8, !tbaa !110
  store ptr %1, ptr %5, align 8, !tbaa !164
  call void @llvm.lifetime.start.p0(i64 8, ptr %6) #12
  %8 = load ptr, ptr %5, align 8, !tbaa !164
  call void @av_packet_unref(ptr noundef %8)
  %9 = load ptr, ptr %4, align 8, !tbaa !110
  %10 = getelementptr inbounds nuw %struct.PESContext, ptr %9, i32 0, i32 18
  %11 = load ptr, ptr %10, align 8, !tbaa !287
  %12 = load ptr, ptr %5, align 8, !tbaa !164
  %13 = getelementptr inbounds nuw %struct.AVPacket, ptr %12, i32 0, i32 0
  store ptr %11, ptr %13, align 8, !tbaa !291
  %14 = load ptr, ptr %4, align 8, !tbaa !110
  %15 = getelementptr inbounds nuw %struct.PESContext, ptr %14, i32 0, i32 18
  %16 = load ptr, ptr %15, align 8, !tbaa !287
  %17 = getelementptr inbounds nuw %struct.AVBufferRef, ptr %16, i32 0, i32 1
  %18 = load ptr, ptr %17, align 8, !tbaa !288
  %19 = load ptr, ptr %5, align 8, !tbaa !164
  %20 = getelementptr inbounds nuw %struct.AVPacket, ptr %19, i32 0, i32 3
  store ptr %18, ptr %20, align 8, !tbaa !202
  %21 = load ptr, ptr %4, align 8, !tbaa !110
  %22 = getelementptr inbounds nuw %struct.PESContext, ptr %21, i32 0, i32 8
  %23 = load i32, ptr %22, align 4, !tbaa !194
  %24 = load ptr, ptr %5, align 8, !tbaa !164
  %25 = getelementptr inbounds nuw %struct.AVPacket, ptr %24, i32 0, i32 4
  store i32 %23, ptr %25, align 8, !tbaa !192
  %26 = load ptr, ptr %4, align 8, !tbaa !110
  %27 = getelementptr inbounds nuw %struct.PESContext, ptr %26, i32 0, i32 10
  %28 = load i32, ptr %27, align 4, !tbaa !277
  %29 = icmp ne i32 %28, 0
  br i1 %29, label %30, label %51

30:                                               ; preds = %2
  %31 = load ptr, ptr %4, align 8, !tbaa !110
  %32 = getelementptr inbounds nuw %struct.PESContext, ptr %31, i32 0, i32 11
  %33 = load i32, ptr %32, align 8, !tbaa !278
  %34 = load ptr, ptr %4, align 8, !tbaa !110
  %35 = getelementptr inbounds nuw %struct.PESContext, ptr %34, i32 0, i32 8
  %36 = load i32, ptr %35, align 4, !tbaa !194
  %37 = add nsw i32 %33, %36
  %38 = load ptr, ptr %4, align 8, !tbaa !110
  %39 = getelementptr inbounds nuw %struct.PESContext, ptr %38, i32 0, i32 10
  %40 = load i32, ptr %39, align 4, !tbaa !277
  %41 = add nsw i32 %40, 6
  %42 = icmp ne i32 %37, %41
  br i1 %42, label %43, label %51

43:                                               ; preds = %30
  %44 = load ptr, ptr %4, align 8, !tbaa !110
  %45 = getelementptr inbounds nuw %struct.PESContext, ptr %44, i32 0, i32 4
  %46 = load ptr, ptr %45, align 8, !tbaa !246
  call void (ptr, i32, ptr, ...) @av_log(ptr noundef %46, i32 noundef 24, ptr noundef @.str.54)
  %47 = load ptr, ptr %4, align 8, !tbaa !110
  %48 = getelementptr inbounds nuw %struct.PESContext, ptr %47, i32 0, i32 9
  %49 = load i32, ptr %48, align 8, !tbaa !167
  %50 = or i32 %49, 2
  store i32 %50, ptr %48, align 8, !tbaa !167
  br label %51

51:                                               ; preds = %43, %30, %2
  %52 = load ptr, ptr %5, align 8, !tbaa !164
  %53 = getelementptr inbounds nuw %struct.AVPacket, ptr %52, i32 0, i32 3
  %54 = load ptr, ptr %53, align 8, !tbaa !202
  %55 = load ptr, ptr %5, align 8, !tbaa !164
  %56 = getelementptr inbounds nuw %struct.AVPacket, ptr %55, i32 0, i32 4
  %57 = load i32, ptr %56, align 8, !tbaa !192
  %58 = sext i32 %57 to i64
  %59 = getelementptr inbounds i8, ptr %54, i64 %58
  call void @llvm.memset.p0.i64(ptr align 1 %59, i8 0, i64 64, i1 false)
  %60 = load ptr, ptr %4, align 8, !tbaa !110
  %61 = getelementptr inbounds nuw %struct.PESContext, ptr %60, i32 0, i32 6
  %62 = load ptr, ptr %61, align 8, !tbaa !252
  %63 = icmp ne ptr %62, null
  br i1 %63, label %64, label %82

64:                                               ; preds = %51
  %65 = load ptr, ptr %4, align 8, !tbaa !110
  %66 = getelementptr inbounds nuw %struct.PESContext, ptr %65, i32 0, i32 2
  %67 = load i32, ptr %66, align 8, !tbaa !244
  %68 = icmp eq i32 %67, 131
  br i1 %68, label %69, label %82

69:                                               ; preds = %64
  %70 = load ptr, ptr %4, align 8, !tbaa !110
  %71 = getelementptr inbounds nuw %struct.PESContext, ptr %70, i32 0, i32 12
  %72 = load i32, ptr %71, align 4, !tbaa !280
  %73 = icmp eq i32 %72, 118
  br i1 %73, label %74, label %82

74:                                               ; preds = %69
  %75 = load ptr, ptr %4, align 8, !tbaa !110
  %76 = getelementptr inbounds nuw %struct.PESContext, ptr %75, i32 0, i32 6
  %77 = load ptr, ptr %76, align 8, !tbaa !252
  %78 = getelementptr inbounds nuw %struct.AVStream, ptr %77, i32 0, i32 1
  %79 = load i32, ptr %78, align 8, !tbaa !161
  %80 = load ptr, ptr %5, align 8, !tbaa !164
  %81 = getelementptr inbounds nuw %struct.AVPacket, ptr %80, i32 0, i32 5
  store i32 %79, ptr %81, align 4, !tbaa !162
  br label %90

82:                                               ; preds = %69, %64, %51
  %83 = load ptr, ptr %4, align 8, !tbaa !110
  %84 = getelementptr inbounds nuw %struct.PESContext, ptr %83, i32 0, i32 5
  %85 = load ptr, ptr %84, align 8, !tbaa !112
  %86 = getelementptr inbounds nuw %struct.AVStream, ptr %85, i32 0, i32 1
  %87 = load i32, ptr %86, align 8, !tbaa !161
  %88 = load ptr, ptr %5, align 8, !tbaa !164
  %89 = getelementptr inbounds nuw %struct.AVPacket, ptr %88, i32 0, i32 5
  store i32 %87, ptr %89, align 4, !tbaa !162
  br label %90

90:                                               ; preds = %82, %74
  %91 = load ptr, ptr %4, align 8, !tbaa !110
  %92 = getelementptr inbounds nuw %struct.PESContext, ptr %91, i32 0, i32 14
  %93 = load i64, ptr %92, align 8, !tbaa !265
  %94 = load ptr, ptr %5, align 8, !tbaa !164
  %95 = getelementptr inbounds nuw %struct.AVPacket, ptr %94, i32 0, i32 1
  store i64 %93, ptr %95, align 8, !tbaa !205
  %96 = load ptr, ptr %4, align 8, !tbaa !110
  %97 = getelementptr inbounds nuw %struct.PESContext, ptr %96, i32 0, i32 15
  %98 = load i64, ptr %97, align 8, !tbaa !266
  %99 = load ptr, ptr %5, align 8, !tbaa !164
  %100 = getelementptr inbounds nuw %struct.AVPacket, ptr %99, i32 0, i32 2
  store i64 %98, ptr %100, align 8, !tbaa !198
  %101 = load ptr, ptr %4, align 8, !tbaa !110
  %102 = getelementptr inbounds nuw %struct.PESContext, ptr %101, i32 0, i32 16
  %103 = load i64, ptr %102, align 8, !tbaa !275
  %104 = load ptr, ptr %5, align 8, !tbaa !164
  %105 = getelementptr inbounds nuw %struct.AVPacket, ptr %104, i32 0, i32 10
  store i64 %103, ptr %105, align 8, !tbaa !199
  %106 = load ptr, ptr %4, align 8, !tbaa !110
  %107 = getelementptr inbounds nuw %struct.PESContext, ptr %106, i32 0, i32 9
  %108 = load i32, ptr %107, align 8, !tbaa !167
  %109 = load ptr, ptr %5, align 8, !tbaa !164
  %110 = getelementptr inbounds nuw %struct.AVPacket, ptr %109, i32 0, i32 6
  store i32 %108, ptr %110, align 8, !tbaa !292
  %111 = load ptr, ptr %4, align 8, !tbaa !110
  %112 = getelementptr inbounds nuw %struct.PESContext, ptr %111, i32 0, i32 18
  store ptr null, ptr %112, align 8, !tbaa !287
  %113 = load ptr, ptr %4, align 8, !tbaa !110
  call void @reset_pes_packet_state(ptr noundef %113)
  %114 = load ptr, ptr %5, align 8, !tbaa !164
  %115 = call ptr @av_packet_new_side_data(ptr noundef %114, i32 noundef 19, i64 noundef 1)
  store ptr %115, ptr %6, align 8, !tbaa !16
  %116 = load ptr, ptr %6, align 8, !tbaa !16
  %117 = icmp ne ptr %116, null
  br i1 %117, label %119, label %118

118:                                              ; preds = %90
  store i32 -12, ptr %3, align 4
  store i32 1, ptr %7, align 4
  br label %124

119:                                              ; preds = %90
  %120 = load ptr, ptr %4, align 8, !tbaa !110
  %121 = getelementptr inbounds nuw %struct.PESContext, ptr %120, i32 0, i32 13
  %122 = load i8, ptr %121, align 8, !tbaa !276
  %123 = load ptr, ptr %6, align 8, !tbaa !16
  store i8 %122, ptr %123, align 1, !tbaa !66
  store i32 0, ptr %3, align 4
  store i32 1, ptr %7, align 4
  br label %124

124:                                              ; preds = %119, %118
  call void @llvm.lifetime.end.p0(i64 8, ptr %6) #12
  %125 = load i32, ptr %3, align 4
  ret i32 %125
}