; Function Attrs: nounwind uwtable
define internal fastcc range(i32 -12, 1) i32 @new_pes_packet(ptr noundef %0, ptr noundef %1) unnamed_addr #0 {
  tail call void @av_packet_unref(ptr noundef %1) #12
  %3 = getelementptr inbounds nuw i8, ptr %0, i64 368
  %4 = load ptr, ptr %3, align 8, !tbaa !273
  store ptr %4, ptr %1, align 8, !tbaa !279
  %5 = getelementptr inbounds nuw i8, ptr %4, i64 8
  %6 = load ptr, ptr %5, align 8, !tbaa !276
  %7 = getelementptr inbounds nuw i8, ptr %1, i64 24
  store ptr %6, ptr %7, align 8, !tbaa !156
  %8 = getelementptr inbounds nuw i8, ptr %0, i64 52
  %9 = load i32, ptr %8, align 4, !tbaa !199
  %10 = getelementptr inbounds nuw i8, ptr %1, i64 32
  store i32 %9, ptr %10, align 8, !tbaa !157
  %11 = getelementptr inbounds nuw i8, ptr %0, i64 60
  %12 = load i32, ptr %11, align 4, !tbaa !243
  %.not = icmp eq i32 %12, 0
  br i1 %.not, label %24, label %13

13:                                               ; preds = %2
  %14 = getelementptr inbounds nuw i8, ptr %0, i64 64
  %15 = load i32, ptr %14, align 8, !tbaa !244
  %16 = add nsw i32 %15, %9
  %17 = add nsw i32 %12, 6
  %.not39 = icmp eq i32 %16, %17
  br i1 %.not39, label %24, label %18

18:                                               ; preds = %13
  %19 = getelementptr inbounds nuw i8, ptr %0, i64 24
  %20 = load ptr, ptr %19, align 8, !tbaa !162
  tail call void (ptr, i32, ptr, ...) @av_log(ptr noundef %20, i32 noundef 24, ptr noundef nonnull @.str.54) #12
  %21 = getelementptr inbounds nuw i8, ptr %0, i64 56
  %22 = load i32, ptr %21, align 8, !tbaa !177
  %23 = or i32 %22, 2
  store i32 %23, ptr %21, align 8, !tbaa !177
  %.pre = load ptr, ptr %7, align 8, !tbaa !156
  %.pre42 = load i32, ptr %10, align 8, !tbaa !157
  br label %24

24:                                               ; preds = %18, %13, %2
  %25 = phi i32 [ %.pre42, %18 ], [ %9, %13 ], [ %9, %2 ]
  %26 = phi ptr [ %.pre, %18 ], [ %6, %13 ], [ %6, %2 ]
  %27 = sext i32 %25 to i64
  %28 = getelementptr inbounds i8, ptr %26, i64 %27
  tail call void @llvm.memset.p0.i64(ptr noundef nonnull align 1 dereferenceable(64) %28, i8 0, i64 64, i1 false)
  %29 = getelementptr inbounds nuw i8, ptr %0, i64 40
  %30 = load ptr, ptr %29, align 8, !tbaa !235
  %.not40 = icmp eq ptr %30, null
  br i1 %.not40, label %39, label %31

31:                                               ; preds = %24
  %32 = getelementptr inbounds nuw i8, ptr %0, i64 8
  %33 = load i32, ptr %32, align 8, !tbaa !231
  %34 = icmp eq i32 %33, 131
  br i1 %34, label %35, label %39

35:                                               ; preds = %31
  %36 = getelementptr inbounds nuw i8, ptr %0, i64 68
  %37 = load i32, ptr %36, align 4, !tbaa !246
  %38 = icmp eq i32 %37, 118
  br i1 %38, label %42, label %39

39:                                               ; preds = %35, %31, %24
  %40 = getelementptr inbounds nuw i8, ptr %0, i64 32
  %41 = load ptr, ptr %40, align 8, !tbaa !103
  br label %42

42:                                               ; preds = %35, %39
  %.sink = phi ptr [ %41, %39 ], [ %30, %35 ]
  %43 = getelementptr inbounds nuw i8, ptr %.sink, i64 8
  %44 = load i32, ptr %43, align 8, !tbaa !158
  %45 = getelementptr inbounds nuw i8, ptr %1, i64 36
  store i32 %44, ptr %45, align 4, !tbaa !159
  %46 = getelementptr inbounds nuw i8, ptr %0, i64 80
  %47 = load i64, ptr %46, align 8, !tbaa !166
  %48 = getelementptr inbounds nuw i8, ptr %1, i64 8
  store i64 %47, ptr %48, align 8, !tbaa !209
  %49 = getelementptr inbounds nuw i8, ptr %0, i64 88
  %50 = load i64, ptr %49, align 8, !tbaa !167
  %51 = getelementptr inbounds nuw i8, ptr %1, i64 16
  store i64 %50, ptr %51, align 8, !tbaa !202
  %52 = getelementptr inbounds nuw i8, ptr %0, i64 96
  %53 = load i64, ptr %52, align 8, !tbaa !241
  %54 = getelementptr inbounds nuw i8, ptr %1, i64 72
  store i64 %53, ptr %54, align 8, !tbaa !203
  %55 = getelementptr inbounds nuw i8, ptr %0, i64 56
  %56 = load i32, ptr %55, align 8, !tbaa !177
  %57 = getelementptr inbounds nuw i8, ptr %1, i64 40
  store i32 %56, ptr %57, align 8, !tbaa !280
  store ptr null, ptr %3, align 8, !tbaa !273
  store i64 -9223372036854775808, ptr %46, align 8, !tbaa !166
  store i64 -9223372036854775808, ptr %49, align 8, !tbaa !167
  store i32 0, ptr %8, align 4, !tbaa !199
  store i32 0, ptr %55, align 8, !tbaa !177
  tail call void @av_buffer_unref(ptr noundef nonnull %3) #12
  %58 = tail call ptr @av_packet_new_side_data(ptr noundef nonnull %1, i32 noundef 19, i64 noundef 1) #12
  %.not41 = icmp eq ptr %58, null
  br i1 %.not41, label %62, label %59

59:                                               ; preds = %42
  %60 = getelementptr inbounds nuw i8, ptr %0, i64 72
  %61 = load i8, ptr %60, align 8, !tbaa !242
  store i8 %61, ptr %58, align 1, !tbaa !9
  br label %62

62:                                               ; preds = %42, %59
  %.0 = phi i32 [ 0, %59 ], [ -12, %42 ]
  ret i32 %.0
}